; Function Attrs: nounwind uwtable
define internal range(i32 -1, 1) i32 @weakref___init__(ptr readnone captures(none) %0, ptr noundef %1, ptr noundef %2) #0 {
  %4 = alloca ptr, align 8
  call void @llvm.lifetime.start.p0(i64 8, ptr nonnull %4) #6
  %5 = icmp eq ptr %2, null
  br i1 %5, label %.split, label %6

6:                                                ; preds = %3
  %7 = tail call i32 @_PyArg_NoKeywords(ptr noundef nonnull @.str.16, ptr noundef nonnull %2) #6
  %.not = icmp eq i32 %7, 0
  br i1 %.not, label %9, label %.split

.split:                                           ; preds = %6, %3
  %8 = call i32 (ptr, ptr, i64, i64, ...) @PyArg_UnpackTuple(ptr noundef %1, ptr noundef nonnull @.str.17, i64 noundef 1, i64 noundef 2, ptr noundef nonnull %4, ptr noundef nonnull %4) #6
  %.not6 = icmp eq i32 %8, 0
  %. = sext i1 %.not6 to i32
  br label %9

9:                                                ; preds = %.split, %6
  %.0 = phi i32 [ -1, %6 ], [ %., %.split ]
  call void @llvm.lifetime.end.p0(i64 8, ptr nonnull %4) #6
  ret i32 %.0
}